target datalayout = "e-m:e-p270:32:32-p271:32:32-p272:64:64-i64:64-i128:128-f80:128-n8:16:32:64-S128"
target triple = "x86_64-pc-linux-gnu"

%struct._ansi_a_tap_rec_t = type { i8, i8 }
%struct.ext_value_string_t = type { i32, ptr, i32 }
%struct._stat_tap_table_item_type = type { i32, %union.anon, %union.anon.0 }
%union.anon = type { ptr }
%union.anon.0 = type { ptr }
%struct._stat_tap_table_ui = type { i32, ptr, ptr, ptr, ptr, ptr, ptr, ptr, ptr, i64, ptr, i64, ptr, ptr, i32 }
%struct._stat_data_t = type { ptr, ptr }
%struct._GArray = type { ptr, i32 }

@ansi_a_bsmap_strings = global ptr null, align 8

; Function Attrs: nounwind null_pointer_is_valid sspstrong uwtable
define internal ptr @my_try_val_to_str_idx(i32 noundef %0, ptr noundef %1, ptr noundef %2) #7 {
  %4 = alloca ptr, align 8
  %5 = alloca i32, align 4
  %6 = alloca ptr, align 8
  %7 = alloca ptr, align 8
  %8 = alloca i32, align 4
  %9 = alloca i32, align 4
  store i32 %0, ptr %5, align 4
  store ptr %1, ptr %6, align 8
  store ptr %2, ptr %7, align 8
  call void @llvm.lifetime.start.p0(i64 4, ptr %8) #8
  store i32 0, ptr %8, align 4
  br label %10

10:                                               ; preds = %41, %3
  %11 = load ptr, ptr %6, align 8
  %12 = load i32, ptr %8, align 4
  %13 = sext i32 %12 to i64
  %14 = getelementptr %struct.ext_value_string_t, ptr %11, i64 %13
  %15 = getelementptr inbounds nuw %struct.ext_value_string_t, ptr %14, i32 0, i32 1
  %16 = load ptr, ptr %15, align 8
  %17 = icmp ne ptr %16, null
  br i1 %17, label %18, label %44

18:                                               ; preds = %10
  %19 = load ptr, ptr %6, align 8
  %20 = load i32, ptr %8, align 4
  %21 = sext i32 %20 to i64
  %22 = getelementptr %struct.ext_value_string_t, ptr %19, i64 %21
  %23 = getelementptr inbounds nuw %struct.ext_value_string_t, ptr %22, i32 0, i32 0
  %24 = load i32, ptr %23, align 8
  %25 = load i32, ptr %5, align 4
  %26 = icmp eq i32 %24, %25
  br i1 %26, label %27, label %41

27:                                               ; preds = %18
  %28 = load ptr, ptr %6, align 8
  %29 = load i32, ptr %8, align 4
  %30 = sext i32 %29 to i64
  %31 = getelementptr %struct.ext_value_string_t, ptr %28, i64 %30
  %32 = getelementptr inbounds nuw %struct.ext_value_string_t, ptr %31, i32 0, i32 2
  %33 = load i32, ptr %32, align 8
  %34 = load ptr, ptr %7, align 8
  store i32 %33, ptr %34, align 4
  %35 = load ptr, ptr %6, align 8
  %36 = load i32, ptr %8, align 4
  %37 = sext i32 %36 to i64
  %38 = getelementptr %struct.ext_value_string_t, ptr %35, i64 %37
  %39 = getelementptr inbounds nuw %struct.ext_value_string_t, ptr %38, i32 0, i32 1
  %40 = load ptr, ptr %39, align 8
  store ptr %40, ptr %4, align 8
  store i32 1, ptr %9, align 4
  br label %46

41:                                               ; preds = %18
  %42 = load i32, ptr %8, align 4
  %43 = add i32 %42, 1
  store i32 %43, ptr %8, align 4
  br label %10, !llvm.loop !39

44:                                               ; preds = %10
  %45 = load ptr, ptr %7, align 8
  store i32 -1, ptr %45, align 4
  store ptr null, ptr %4, align 8
  store i32 1, ptr %9, align 4
  br label %46

46:                                               ; preds = %44, %27
  call void @llvm.lifetime.end.p0(i64 4, ptr %8) #8
  %47 = load ptr, ptr %4, align 8
  ret ptr %47
}

; Function Attrs: null_pointer_is_valid sspstrong uwtable
define internal i32 @ansi_a_bsmap_stat_packet(ptr noundef %0, ptr noundef %1, ptr noundef %2, ptr noundef %3, i32 noundef %4) #1 {
  %6 = alloca i32, align 4
  %7 = alloca ptr, align 8
  %8 = alloca ptr, align 8
  %9 = alloca ptr, align 8
  %10 = alloca ptr, align 8
  %11 = alloca i32, align 4
  %12 = alloca ptr, align 8
  %13 = alloca ptr, align 8
  %14 = alloca ptr, align 8
  %15 = alloca ptr, align 8
  %16 = alloca i32, align 4
  %17 = alloca i32, align 4
  store ptr %0, ptr %7, align 8
  store ptr %1, ptr %8, align 8
  store ptr %2, ptr %9, align 8
  store ptr %3, ptr %10, align 8
  store i32 %4, ptr %11, align 4
  call void @llvm.lifetime.start.p0(i64 8, ptr %12) #8
  %18 = load ptr, ptr %7, align 8
  store ptr %18, ptr %12, align 8
  call void @llvm.lifetime.start.p0(i64 8, ptr %13) #8
  %19 = load ptr, ptr %10, align 8
  store ptr %19, ptr %13, align 8
  call void @llvm.lifetime.start.p0(i64 8, ptr %14) #8
  call void @llvm.lifetime.start.p0(i64 8, ptr %15) #8
  call void @llvm.lifetime.start.p0(i64 4, ptr %16) #8
  %20 = load ptr, ptr %13, align 8
  %21 = getelementptr inbounds nuw %struct._ansi_a_tap_rec_t, ptr %20, i32 0, i32 0
  %22 = load i8, ptr %21, align 1
  %23 = zext i8 %22 to i32
  %24 = icmp eq i32 %23, 0
  br i1 %24, label %25, label %54

25:                                               ; preds = %5
  %26 = load ptr, ptr %13, align 8
  %27 = getelementptr inbounds nuw %struct._ansi_a_tap_rec_t, ptr %26, i32 0, i32 1
  %28 = load i8, ptr %27, align 1
  %29 = zext i8 %28 to i32
  %30 = load ptr, ptr @ansi_a_bsmap_strings, align 8
  %31 = call ptr @my_try_val_to_str_idx(i32 noundef %29, ptr noundef %30, ptr noundef %16)
  %32 = icmp eq ptr %31, null
  br i1 %32, label %33, label %34

33:                                               ; preds = %25
  store i32 0, ptr %6, align 4
  store i32 1, ptr %17, align 4
  br label %55

34:                                               ; preds = %25
  %35 = load ptr, ptr %12, align 8
  %36 = getelementptr inbounds nuw %struct._stat_data_t, ptr %35, i32 0, i32 0
  %37 = load ptr, ptr %36, align 8
  %38 = getelementptr inbounds nuw %struct._stat_tap_table_ui, ptr %37, i32 0, i32 13
  %39 = load ptr, ptr %38, align 8
  %40 = getelementptr inbounds nuw %struct._GArray, ptr %39, i32 0, i32 0
  %41 = load ptr, ptr %40, align 8
  %42 = getelementptr ptr, ptr %41, i64 0
  %43 = load ptr, ptr %42, align 8
  store ptr %43, ptr %15, align 8
  %44 = load ptr, ptr %15, align 8
  %45 = load i32, ptr %16, align 4
  %46 = call ptr @stat_tap_get_field_data(ptr noundef %44, i32 noundef %45, i32 noundef 2)
  store ptr %46, ptr %14, align 8
  %47 = load ptr, ptr %14, align 8
  %48 = getelementptr inbounds nuw %struct._stat_tap_table_item_type, ptr %47, i32 0, i32 1
  %49 = load i32, ptr %48, align 8
  %50 = add i32 %49, 1
  store i32 %50, ptr %48, align 8
  %51 = load ptr, ptr %15, align 8
  %52 = load i32, ptr %16, align 4
  %53 = load ptr, ptr %14, align 8
  call void @stat_tap_set_field_data(ptr noundef %51, i32 noundef %52, i32 noundef 2, ptr noundef %53)
  store i32 1, ptr %6, align 4
  store i32 1, ptr %17, align 4
  br label %55

54:                                               ; preds = %5
  store i32 0, ptr %6, align 4
  store i32 1, ptr %17, align 4
  br label %55

55:                                               ; preds = %54, %34, %33
  call void @llvm.lifetime.end.p0(i64 4, ptr %16) #8
  call void @llvm.lifetime.end.p0(i64 8, ptr %15) #8
  call void @llvm.lifetime.end.p0(i64 8, ptr %14) #8
  call void @llvm.lifetime.end.p0(i64 8, ptr %13) #8
  call void @llvm.lifetime.end.p0(i64 8, ptr %12) #8
  %56 = load i32, ptr %6, align 4
  ret i32 %56
}