; Function Attrs: null_pointer_is_valid sspstrong uwtable
define internal range(i32 0, 2) i32 @ansi_a_bsmap_stat_packet(ptr noundef readonly captures(none) %0, ptr readnone captures(none) %1, ptr readnone captures(none) %2, ptr noundef readonly captures(none) %3, i32 %4) #1 {
  %6 = load i8, ptr %3, align 1
  %7 = icmp eq i8 %6, 0
  br i1 %7, label %8, label %my_try_val_to_str_idx.exit.thread

8:                                                ; preds = %5
  %9 = getelementptr inbounds nuw i8, ptr %3, i64 1
  %10 = load i8, ptr %9, align 1
  %11 = zext i8 %10 to i32
  %12 = load ptr, ptr @ansi_a_bsmap_strings, align 8
  %13 = getelementptr inbounds nuw i8, ptr %12, i64 8
  %14 = load ptr, ptr %13, align 8
  %.not16.i = icmp eq ptr %14, null
  br i1 %.not16.i, label %my_try_val_to_str_idx.exit.thread, label %.lr.ph.i

15:                                               ; preds = %.lr.ph.i
  %16 = add i32 %.017.i, 1
  %17 = sext i32 %16 to i64
  %18 = getelementptr %struct.ext_value_string_t, ptr %12, i64 %17
  %19 = getelementptr inbounds nuw i8, ptr %18, i64 8
  %20 = load ptr, ptr %19, align 8
  %.not.i = icmp eq ptr %20, null
  br i1 %.not.i, label %my_try_val_to_str_idx.exit.thread, label %.lr.ph.i, !llvm.loop !15

.lr.ph.i:                                         ; preds = %8, %15
  %21 = phi ptr [ %18, %15 ], [ %12, %8 ]
  %.017.i = phi i32 [ %16, %15 ], [ 0, %8 ]
  %22 = load i32, ptr %21, align 8
  %23 = icmp eq i32 %22, %11
  br i1 %23, label %my_try_val_to_str_idx.exit, label %15

my_try_val_to_str_idx.exit:                       ; preds = %.lr.ph.i
  %24 = getelementptr inbounds nuw i8, ptr %21, i64 16
  %25 = load i32, ptr %24, align 8
  %26 = load ptr, ptr %0, align 8
  %27 = getelementptr inbounds nuw i8, ptr %26, i64 104
  %28 = load ptr, ptr %27, align 8
  %29 = load ptr, ptr %28, align 8
  %30 = load ptr, ptr %29, align 8
  %31 = tail call ptr @stat_tap_get_field_data(ptr noundef %30, i32 noundef %25, i32 noundef 2)
  %32 = getelementptr inbounds nuw i8, ptr %31, i64 8
  %33 = load i32, ptr %32, align 8
  %34 = add i32 %33, 1
  store i32 %34, ptr %32, align 8
  tail call void @stat_tap_set_field_data(ptr noundef %30, i32 noundef %25, i32 noundef 2, ptr noundef %31)
  br label %my_try_val_to_str_idx.exit.thread

my_try_val_to_str_idx.exit.thread:                ; preds = %15, %8, %5, %my_try_val_to_str_idx.exit
  %.0 = phi i32 [ 1, %my_try_val_to_str_idx.exit ], [ 0, %5 ], [ 0, %8 ], [ 0, %15 ]
  ret i32 %.0
}